#include <math.h>
#include <stdio.h>
#include <stdlib.h>
#include <string.h>

int n,l,i,j,f[1000],tm,tn,tt;
char c[1000];
int st(int s,int t)
{
    int k;
    for(k=0;k<n;k++)
       if(c[s+k]!=c[t+k])
                   return 0;
    return 1;
}

int main()
{
    scanf("%d%s",&n,c);
    l=strlen(c);
    for(i=l-n;i>=0;i--)
    {
        for(tt=0,j=i;j<=l-n;j++)
            if(st(i,j))
                tt++;
        if(tt>tm)f[0]=1,f[1]=i,tm=tt;
        else if(tt==tm)f[++f[0]]=i;
    }
    if(tm>1)
    {    printf("%d\n",tm);
    for(i=f[0];i;i--,printf("\n"))
        for(j=0;j<n;j++)
            printf("%c",c[f[i]+j]);
    }
    else
        printf("NO");
    return 0;
}
